target datalayout = "e-m:e-p270:32:32-p271:32:32-p272:64:64-i64:64-i128:128-f80:128-n8:16:32:64-S128"
target triple = "x86_64-pc-linux-gnu"

%"class.clang::SourceLocation" = type { i32 }
%"struct.(anonymous namespace)::CompareOverloadCandidatesForDisplay" = type <{ ptr, %"class.clang::SourceLocation", [4 x i8], i64, i32, [4 x i8] }>
%"struct.__gnu_cxx::__ops::_Iter_comp_iter.2161" = type { %"struct.(anonymous namespace)::CompareOverloadCandidatesForDisplay" }
%"struct.__gnu_cxx::__ops::_Val_comp_iter" = type { %"struct.(anonymous namespace)::CompareOverloadCandidatesForDisplay" }

; Function Attrs: mustprogress nounwind uwtable
define linkonce_odr hidden noundef ptr @_ZNSt20__copy_move_backwardILb1ELb1ESt26random_access_iterator_tagE13__copy_move_bIPN5clang17OverloadCandidateEEEPT_PKS6_S9_S7_(ptr noundef %0, ptr noundef %1, ptr noundef %2) #0 comdat align 2 {
  %4 = alloca ptr, align 8
  %5 = alloca ptr, align 8
  %6 = alloca ptr, align 8
  %7 = alloca i64, align 8
  store ptr %0, ptr %4, align 8
  store ptr %1, ptr %5, align 8
  store ptr %2, ptr %6, align 8
  %8 = load ptr, ptr %5, align 8
  %9 = load ptr, ptr %4, align 8
  %10 = ptrtoint ptr %8 to i64
  %11 = ptrtoint ptr %9 to i64
  %12 = sub i64 %10, %11
  %13 = sdiv exact i64 %12, 8
  store i64 %13, ptr %7, align 8
  %14 = load i64, ptr %7, align 8
  %15 = icmp ne i64 %14, 0
  br i1 %15, label %16, label %24

16:                                               ; preds = %3
  %17 = load ptr, ptr %6, align 8
  %18 = load i64, ptr %7, align 8
  %19 = sub i64 0, %18
  %20 = getelementptr inbounds ptr, ptr %17, i64 %19
  %21 = load ptr, ptr %4, align 8
  %22 = load i64, ptr %7, align 8
  %23 = mul i64 8, %22
  call void @llvm.memmove.p0.p0.i64(ptr align 8 %20, ptr align 8 %21, i64 %23, i1 false)
  br label %24

24:                                               ; preds = %16, %3
  %25 = load ptr, ptr %6, align 8
  %26 = load i64, ptr %7, align 8
  %27 = sub i64 0, %26
  %28 = getelementptr inbounds ptr, ptr %25, i64 %27
  ret ptr %28
}

; Function Attrs: mustprogress nounwind uwtable
define linkonce_odr noundef ptr @_ZSt23__copy_move_backward_a2ILb1EPPN5clang17OverloadCandidateES3_ET1_T0_S5_S4_(ptr noundef %0, ptr noundef %1, ptr noundef %2) #0 comdat {
  %4 = alloca ptr, align 8
  %5 = alloca ptr, align 8
  %6 = alloca ptr, align 8
  store ptr %0, ptr %4, align 8
  store ptr %1, ptr %5, align 8
  store ptr %2, ptr %6, align 8
  %7 = load ptr, ptr %4, align 8
  %8 = load ptr, ptr %5, align 8
  %9 = load ptr, ptr %6, align 8
  %10 = call noundef ptr @_ZNSt20__copy_move_backwardILb1ELb1ESt26random_access_iterator_tagE13__copy_move_bIPN5clang17OverloadCandidateEEEPT_PKS6_S9_S7_(ptr noundef %7, ptr noundef %8, ptr noundef %9)
  ret ptr %10
}

; Function Attrs: mustprogress nounwind uwtable
define linkonce_odr noundef ptr @_ZSt12__niter_wrapIPPN5clang17OverloadCandidateEET_RKS4_S4_(ptr noundef nonnull align 8 dereferenceable(8) %0, ptr noundef %1) #0 comdat {
  %3 = alloca ptr, align 8
  %4 = alloca ptr, align 8
  store ptr %0, ptr %3, align 8
  store ptr %1, ptr %4, align 8
  %5 = load ptr, ptr %4, align 8
  ret ptr %5
}

; Function Attrs: mustprogress nounwind uwtable
define linkonce_odr noundef ptr @_ZSt23__copy_move_backward_a1ILb1EPPN5clang17OverloadCandidateES3_ET1_T0_S5_S4_(ptr noundef %0, ptr noundef %1, ptr noundef %2) #0 comdat {
  %4 = alloca ptr, align 8
  %5 = alloca ptr, align 8
  %6 = alloca ptr, align 8
  store ptr %0, ptr %4, align 8
  store ptr %1, ptr %5, align 8
  store ptr %2, ptr %6, align 8
  %7 = load ptr, ptr %4, align 8
  %8 = load ptr, ptr %5, align 8
  %9 = load ptr, ptr %6, align 8
  %10 = call noundef ptr @_ZSt23__copy_move_backward_a2ILb1EPPN5clang17OverloadCandidateES3_ET1_T0_S5_S4_(ptr noundef %7, ptr noundef %8, ptr noundef %9)
  ret ptr %10
}

; Function Attrs: mustprogress nounwind uwtable
define linkonce_odr noundef ptr @_ZSt12__niter_baseIPPN5clang17OverloadCandidateEET_S4_(ptr noundef %0) #0 comdat {
  %2 = alloca ptr, align 8
  store ptr %0, ptr %2, align 8
  %3 = load ptr, ptr %2, align 8
  ret ptr %3
}

; Function Attrs: mustprogress nounwind uwtable
define internal noundef zeroext i1 @_ZN9__gnu_cxx5__ops14_Val_comp_iterIN12_GLOBAL__N_135CompareOverloadCandidatesForDisplayEEclIPN5clang17OverloadCandidateEPS8_EEbRT_T0_(ptr noundef nonnull align 8 dereferenceable(32) %0, ptr noundef nonnull align 8 dereferenceable(8) %1, ptr noundef %2) #0 align 2 {
  %4 = alloca ptr, align 8
  %5 = alloca ptr, align 8
  %6 = alloca ptr, align 8
  store ptr %0, ptr %4, align 8
  store ptr %1, ptr %5, align 8
  store ptr %2, ptr %6, align 8
  %7 = load ptr, ptr %4, align 8
  %8 = getelementptr inbounds nuw %"struct.__gnu_cxx::__ops::_Val_comp_iter", ptr %7, i32 0, i32 0
  %9 = load ptr, ptr %5, align 8
  %10 = load ptr, ptr %9, align 8
  %11 = load ptr, ptr %6, align 8
  %12 = load ptr, ptr %11, align 8
  %13 = call noundef zeroext i1 @_ZN12_GLOBAL__N_135CompareOverloadCandidatesForDisplayclEPKN5clang17OverloadCandidateES4_(ptr noundef nonnull align 8 dereferenceable(28) %8, ptr noundef %10, ptr noundef %12)
  ret i1 %13
}

; Function Attrs: mustprogress nounwind uwtable
define internal void @_ZN9__gnu_cxx5__ops14_Val_comp_iterIN12_GLOBAL__N_135CompareOverloadCandidatesForDisplayEEC2EONS0_15_Iter_comp_iterIS3_EE(ptr noundef nonnull align 8 dereferenceable(32) %0, ptr noundef nonnull align 8 dereferenceable(32) %1) unnamed_addr #0 align 2 {
  %3 = alloca ptr, align 8
  %4 = alloca ptr, align 8
  store ptr %0, ptr %3, align 8
  store ptr %1, ptr %4, align 8
  %5 = load ptr, ptr %3, align 8
  %6 = getelementptr inbounds nuw %"struct.__gnu_cxx::__ops::_Val_comp_iter", ptr %5, i32 0, i32 0
  %7 = load ptr, ptr %4, align 8
  %8 = getelementptr inbounds nuw %"struct.__gnu_cxx::__ops::_Iter_comp_iter.2161", ptr %7, i32 0, i32 0
  call void @llvm.memcpy.p0.p0.i64(ptr align 8 %6, ptr align 8 %8, i64 32, i1 false)
  ret void
}

; Function Attrs: mustprogress nounwind uwtable
define linkonce_odr noundef ptr @_ZSt22__copy_move_backward_aILb1EPPN5clang17OverloadCandidateES3_ET1_T0_S5_S4_(ptr noundef %0, ptr noundef %1, ptr noundef %2) #0 comdat {
  %4 = alloca ptr, align 8
  %5 = alloca ptr, align 8
  %6 = alloca ptr, align 8
  store ptr %0, ptr %4, align 8
  store ptr %1, ptr %5, align 8
  store ptr %2, ptr %6, align 8
  %7 = load ptr, ptr %4, align 8
  %8 = call noundef ptr @_ZSt12__niter_baseIPPN5clang17OverloadCandidateEET_S4_(ptr noundef %7) #16
  %9 = load ptr, ptr %5, align 8
  %10 = call noundef ptr @_ZSt12__niter_baseIPPN5clang17OverloadCandidateEET_S4_(ptr noundef %9) #16
  %11 = load ptr, ptr %6, align 8
  %12 = call noundef ptr @_ZSt12__niter_baseIPPN5clang17OverloadCandidateEET_S4_(ptr noundef %11) #16
  %13 = call noundef ptr @_ZSt23__copy_move_backward_a1ILb1EPPN5clang17OverloadCandidateES3_ET1_T0_S5_S4_(ptr noundef %8, ptr noundef %10, ptr noundef %12)
  %14 = call noundef ptr @_ZSt12__niter_wrapIPPN5clang17OverloadCandidateEET_RKS4_S4_(ptr noundef nonnull align 8 dereferenceable(8) %6, ptr noundef %13)
  ret ptr %14
}

; Function Attrs: mustprogress nounwind uwtable
define linkonce_odr noundef ptr @_ZSt12__miter_baseIPPN5clang17OverloadCandidateEET_S4_(ptr noundef %0) #0 comdat {
  %2 = alloca ptr, align 8
  store ptr %0, ptr %2, align 8
  %3 = load ptr, ptr %2, align 8
  ret ptr %3
}

; Function Attrs: mustprogress nounwind uwtable
define internal void @_ZSt25__unguarded_linear_insertIPPN5clang17OverloadCandidateEN9__gnu_cxx5__ops14_Val_comp_iterIN12_GLOBAL__N_135CompareOverloadCandidatesForDisplayEEEEvT_T0_(ptr noundef %0, ptr noundef byval(%"struct.__gnu_cxx::__ops::_Val_comp_iter") align 8 %1) #0 {
  %3 = alloca ptr, align 8
  %4 = alloca ptr, align 8
  %5 = alloca ptr, align 8
  store ptr %0, ptr %3, align 8
  %6 = load ptr, ptr %3, align 8
  %7 = load ptr, ptr %6, align 8
  store ptr %7, ptr %4, align 8
  %8 = load ptr, ptr %3, align 8
  store ptr %8, ptr %5, align 8
  %9 = load ptr, ptr %5, align 8
  %10 = getelementptr inbounds ptr, ptr %9, i32 -1
  store ptr %10, ptr %5, align 8
  br label %11

11:                                               ; preds = %14, %2
  %12 = load ptr, ptr %5, align 8
  %13 = call noundef zeroext i1 @_ZN9__gnu_cxx5__ops14_Val_comp_iterIN12_GLOBAL__N_135CompareOverloadCandidatesForDisplayEEclIPN5clang17OverloadCandidateEPS8_EEbRT_T0_(ptr noundef nonnull align 8 dereferenceable(32) %1, ptr noundef nonnull align 8 dereferenceable(8) %4, ptr noundef %12)
  br i1 %13, label %14, label %21

14:                                               ; preds = %11
  %15 = load ptr, ptr %5, align 8
  %16 = load ptr, ptr %15, align 8
  %17 = load ptr, ptr %3, align 8
  store ptr %16, ptr %17, align 8
  %18 = load ptr, ptr %5, align 8
  store ptr %18, ptr %3, align 8
  %19 = load ptr, ptr %5, align 8
  %20 = getelementptr inbounds ptr, ptr %19, i32 -1
  store ptr %20, ptr %5, align 8
  br label %11, !llvm.loop !221

21:                                               ; preds = %11
  %22 = load ptr, ptr %4, align 8
  %23 = load ptr, ptr %3, align 8
  store ptr %22, ptr %23, align 8
  ret void
}

; Function Attrs: mustprogress nounwind uwtable
define internal void @_ZN9__gnu_cxx5__ops15__val_comp_iterIN12_GLOBAL__N_135CompareOverloadCandidatesForDisplayEEENS0_14_Val_comp_iterIT_EENS0_15_Iter_comp_iterIS5_EE(ptr dead_on_unwind noalias writable sret(%"struct.__gnu_cxx::__ops::_Val_comp_iter") align 8 %0, ptr noundef byval(%"struct.__gnu_cxx::__ops::_Iter_comp_iter.2161") align 8 %1) #0 {
  call void @_ZN9__gnu_cxx5__ops14_Val_comp_iterIN12_GLOBAL__N_135CompareOverloadCandidatesForDisplayEEC2EONS0_15_Iter_comp_iterIS3_EE(ptr noundef nonnull align 8 dereferenceable(32) %0, ptr noundef nonnull align 8 dereferenceable(32) %1)
  ret void
}

; Function Attrs: mustprogress nounwind uwtable
define linkonce_odr noundef ptr @_ZSt13move_backwardIPPN5clang17OverloadCandidateES3_ET0_T_S5_S4_(ptr noundef %0, ptr noundef %1, ptr noundef %2) #0 comdat {
  %4 = alloca ptr, align 8
  %5 = alloca ptr, align 8
  %6 = alloca ptr, align 8
  store ptr %0, ptr %4, align 8
  store ptr %1, ptr %5, align 8
  store ptr %2, ptr %6, align 8
  %7 = load ptr, ptr %4, align 8
  %8 = call noundef ptr @_ZSt12__miter_baseIPPN5clang17OverloadCandidateEET_S4_(ptr noundef %7)
  %9 = load ptr, ptr %5, align 8
  %10 = call noundef ptr @_ZSt12__miter_baseIPPN5clang17OverloadCandidateEET_S4_(ptr noundef %9)
  %11 = load ptr, ptr %6, align 8
  %12 = call noundef ptr @_ZSt22__copy_move_backward_aILb1EPPN5clang17OverloadCandidateES3_ET1_T0_S5_S4_(ptr noundef %8, ptr noundef %10, ptr noundef %11)
  ret ptr %12
}

; Function Attrs: mustprogress nounwind uwtable
define internal noundef zeroext i1 @_ZN9__gnu_cxx5__ops15_Iter_comp_iterIN12_GLOBAL__N_135CompareOverloadCandidatesForDisplayEEclIPPN5clang17OverloadCandidateES9_EEbT_T0_(ptr noundef nonnull align 8 dereferenceable(32) %0, ptr noundef %1, ptr noundef %2) #0 align 2 {
  %4 = alloca ptr, align 8
  %5 = alloca ptr, align 8
  %6 = alloca ptr, align 8
  store ptr %0, ptr %4, align 8
  store ptr %1, ptr %5, align 8
  store ptr %2, ptr %6, align 8
  %7 = load ptr, ptr %4, align 8
  %8 = getelementptr inbounds nuw %"struct.__gnu_cxx::__ops::_Iter_comp_iter.2161", ptr %7, i32 0, i32 0
  %9 = load ptr, ptr %5, align 8
  %10 = load ptr, ptr %9, align 8
  %11 = load ptr, ptr %6, align 8
  %12 = load ptr, ptr %11, align 8
  %13 = call noundef zeroext i1 @_ZN12_GLOBAL__N_135CompareOverloadCandidatesForDisplayclEPKN5clang17OverloadCandidateES4_(ptr noundef nonnull align 8 dereferenceable(28) %8, ptr noundef %10, ptr noundef %12)
  ret i1 %13
}

; Function Attrs: mustprogress nounwind uwtable
define internal void @_ZSt16__insertion_sortIPPN5clang17OverloadCandidateEN9__gnu_cxx5__ops15_Iter_comp_iterIN12_GLOBAL__N_135CompareOverloadCandidatesForDisplayEEEEvT_SA_T0_(ptr noundef %0, ptr noundef %1, ptr noundef byval(%"struct.__gnu_cxx::__ops::_Iter_comp_iter.2161") align 8 %2) #0 {
  %4 = alloca ptr, align 8
  %5 = alloca ptr, align 8
  %6 = alloca ptr, align 8
  %7 = alloca ptr, align 8
  %8 = alloca %"struct.__gnu_cxx::__ops::_Val_comp_iter", align 8
  %9 = alloca %"struct.__gnu_cxx::__ops::_Iter_comp_iter.2161", align 8
  store ptr %0, ptr %4, align 8
  store ptr %1, ptr %5, align 8
  %10 = load ptr, ptr %4, align 8
  %11 = load ptr, ptr %5, align 8
  %12 = icmp eq ptr %10, %11
  br i1 %12, label %13, label %14

13:                                               ; preds = %3
  br label %41

14:                                               ; preds = %3
  %15 = load ptr, ptr %4, align 8
  %16 = getelementptr inbounds ptr, ptr %15, i64 1
  store ptr %16, ptr %6, align 8
  br label %17

17:                                               ; preds = %38, %14
  %18 = load ptr, ptr %6, align 8
  %19 = load ptr, ptr %5, align 8
  %20 = icmp ne ptr %18, %19
  br i1 %20, label %21, label %41

21:                                               ; preds = %17
  %22 = load ptr, ptr %6, align 8
  %23 = load ptr, ptr %4, align 8
  %24 = call noundef zeroext i1 @_ZN9__gnu_cxx5__ops15_Iter_comp_iterIN12_GLOBAL__N_135CompareOverloadCandidatesForDisplayEEclIPPN5clang17OverloadCandidateES9_EEbT_T0_(ptr noundef nonnull align 8 dereferenceable(32) %2, ptr noundef %22, ptr noundef %23)
  br i1 %24, label %25, label %35

25:                                               ; preds = %21
  %26 = load ptr, ptr %6, align 8
  %27 = load ptr, ptr %26, align 8
  store ptr %27, ptr %7, align 8
  %28 = load ptr, ptr %4, align 8
  %29 = load ptr, ptr %6, align 8
  %30 = load ptr, ptr %6, align 8
  %31 = getelementptr inbounds ptr, ptr %30, i64 1
  %32 = call noundef ptr @_ZSt13move_backwardIPPN5clang17OverloadCandidateES3_ET0_T_S5_S4_(ptr noundef %28, ptr noundef %29, ptr noundef %31)
  %33 = load ptr, ptr %7, align 8
  %34 = load ptr, ptr %4, align 8
  store ptr %33, ptr %34, align 8
  br label %37

35:                                               ; preds = %21
  %36 = load ptr, ptr %6, align 8
  call void @llvm.memcpy.p0.p0.i64(ptr align 8 %9, ptr align 8 %2, i64 32, i1 false)
  call void @_ZN9__gnu_cxx5__ops15__val_comp_iterIN12_GLOBAL__N_135CompareOverloadCandidatesForDisplayEEENS0_14_Val_comp_iterIT_EENS0_15_Iter_comp_iterIS5_EE(ptr dead_on_unwind writable sret(%"struct.__gnu_cxx::__ops::_Val_comp_iter") align 8 %8, ptr noundef byval(%"struct.__gnu_cxx::__ops::_Iter_comp_iter.2161") align 8 %9)
  call void @_ZSt25__unguarded_linear_insertIPPN5clang17OverloadCandidateEN9__gnu_cxx5__ops14_Val_comp_iterIN12_GLOBAL__N_135CompareOverloadCandidatesForDisplayEEEEvT_T0_(ptr noundef %36, ptr noundef byval(%"struct.__gnu_cxx::__ops::_Val_comp_iter") align 8 %8)
  br label %37

37:                                               ; preds = %35, %25
  br label %38

38:                                               ; preds = %37
  %39 = load ptr, ptr %6, align 8
  %40 = getelementptr inbounds ptr, ptr %39, i32 1
  store ptr %40, ptr %6, align 8
  br label %17, !llvm.loop !220

41:                                               ; preds = %17, %13
  ret void
}

; Function Attrs: mustprogress nounwind uwtable
define internal void @_ZSt21__inplace_stable_sortIPPN5clang17OverloadCandidateEN9__gnu_cxx5__ops15_Iter_comp_iterIN12_GLOBAL__N_135CompareOverloadCandidatesForDisplayEEEEvT_SA_T0_(ptr noundef %0, ptr noundef %1, ptr noundef byval(%"struct.__gnu_cxx::__ops::_Iter_comp_iter.2161") align 8 %2) #0 {
  %4 = alloca ptr, align 8
  %5 = alloca ptr, align 8
  %6 = alloca %"struct.__gnu_cxx::__ops::_Iter_comp_iter.2161", align 8
  %7 = alloca ptr, align 8
  %8 = alloca %"struct.__gnu_cxx::__ops::_Iter_comp_iter.2161", align 8
  %9 = alloca %"struct.__gnu_cxx::__ops::_Iter_comp_iter.2161", align 8
  %10 = alloca %"struct.__gnu_cxx::__ops::_Iter_comp_iter.2161", align 8
  store ptr %0, ptr %4, align 8
  store ptr %1, ptr %5, align 8
  %11 = load ptr, ptr %5, align 8
  %12 = load ptr, ptr %4, align 8
  %13 = ptrtoint ptr %11 to i64
  %14 = ptrtoint ptr %12 to i64
  %15 = sub i64 %13, %14
  %16 = sdiv exact i64 %15, 8
  %17 = icmp slt i64 %16, 15
  br i1 %17, label %18, label %21

18:                                               ; preds = %3
  %19 = load ptr, ptr %4, align 8
  %20 = load ptr, ptr %5, align 8
  call void @llvm.memcpy.p0.p0.i64(ptr align 8 %6, ptr align 8 %2, i64 32, i1 false)
  call void @_ZSt16__insertion_sortIPPN5clang17OverloadCandidateEN9__gnu_cxx5__ops15_Iter_comp_iterIN12_GLOBAL__N_135CompareOverloadCandidatesForDisplayEEEEvT_SA_T0_(ptr noundef %19, ptr noundef %20, ptr noundef byval(%"struct.__gnu_cxx::__ops::_Iter_comp_iter.2161") align 8 %6)
  br label %50

21:                                               ; preds = %3
  %22 = load ptr, ptr %4, align 8
  %23 = load ptr, ptr %5, align 8
  %24 = load ptr, ptr %4, align 8
  %25 = ptrtoint ptr %23 to i64
  %26 = ptrtoint ptr %24 to i64
  %27 = sub i64 %25, %26
  %28 = sdiv exact i64 %27, 8
  %29 = sdiv i64 %28, 2
  %30 = getelementptr inbounds ptr, ptr %22, i64 %29
  store ptr %30, ptr %7, align 8
  %31 = load ptr, ptr %4, align 8
  %32 = load ptr, ptr %7, align 8
  call void @llvm.memcpy.p0.p0.i64(ptr align 8 %8, ptr align 8 %2, i64 32, i1 false)
  call void @_ZSt21__inplace_stable_sortIPPN5clang17OverloadCandidateEN9__gnu_cxx5__ops15_Iter_comp_iterIN12_GLOBAL__N_135CompareOverloadCandidatesForDisplayEEEEvT_SA_T0_(ptr noundef %31, ptr noundef %32, ptr noundef byval(%"struct.__gnu_cxx::__ops::_Iter_comp_iter.2161") align 8 %8)
  %33 = load ptr, ptr %7, align 8
  %34 = load ptr, ptr %5, align 8
  call void @llvm.memcpy.p0.p0.i64(ptr align 8 %9, ptr align 8 %2, i64 32, i1 false)
  call void @_ZSt21__inplace_stable_sortIPPN5clang17OverloadCandidateEN9__gnu_cxx5__ops15_Iter_comp_iterIN12_GLOBAL__N_135CompareOverloadCandidatesForDisplayEEEEvT_SA_T0_(ptr noundef %33, ptr noundef %34, ptr noundef byval(%"struct.__gnu_cxx::__ops::_Iter_comp_iter.2161") align 8 %9)
  %35 = load ptr, ptr %4, align 8
  %36 = load ptr, ptr %7, align 8
  %37 = load ptr, ptr %5, align 8
  %38 = load ptr, ptr %7, align 8
  %39 = load ptr, ptr %4, align 8
  %40 = ptrtoint ptr %38 to i64
  %41 = ptrtoint ptr %39 to i64
  %42 = sub i64 %40, %41
  %43 = sdiv exact i64 %42, 8
  %44 = load ptr, ptr %5, align 8
  %45 = load ptr, ptr %7, align 8
  %46 = ptrtoint ptr %44 to i64
  %47 = ptrtoint ptr %45 to i64
  %48 = sub i64 %46, %47
  %49 = sdiv exact i64 %48, 8
  call void @llvm.memcpy.p0.p0.i64(ptr align 8 %10, ptr align 8 %2, i64 32, i1 false)
  call void @_ZSt22__merge_without_bufferIPPN5clang17OverloadCandidateElN9__gnu_cxx5__ops15_Iter_comp_iterIN12_GLOBAL__N_135CompareOverloadCandidatesForDisplayEEEEvT_SA_SA_T0_SB_T1_(ptr noundef %35, ptr noundef %36, ptr noundef %37, i64 noundef %43, i64 noundef %49, ptr noundef byval(%"struct.__gnu_cxx::__ops::_Iter_comp_iter.2161") align 8 %10)
  br label %50

50:                                               ; preds = %21, %18
  ret void
}