; Function Attrs: mustprogress nounwind uwtable
define internal fastcc void @_ZSt21__inplace_stable_sortIPPN5clang17OverloadCandidateEN9__gnu_cxx5__ops15_Iter_comp_iterIN12_GLOBAL__N_135CompareOverloadCandidatesForDisplayEEEEvT_SA_T0_(ptr noundef %0, ptr noundef %1, ptr nocapture noundef readonly byval(%"struct.__gnu_cxx::__ops::_Iter_comp_iter.2161") align 8 %2) unnamed_addr #4 {
  %4 = alloca %"struct.__gnu_cxx::__ops::_Val_comp_iter", align 8
  %5 = alloca %"struct.__gnu_cxx::__ops::_Iter_comp_iter.2161", align 8
  %6 = ptrtoint ptr %1 to i64
  %7 = ptrtoint ptr %0 to i64
  %8 = sub i64 %6, %7
  %9 = ashr exact i64 %8, 3
  %10 = icmp slt i64 %9, 15
  br i1 %10, label %11, label %27

11:                                               ; preds = %3
  call void @llvm.lifetime.start.p0(i64 32, ptr nonnull %5)
  call void @llvm.memcpy.p0.p0.i64(ptr noundef nonnull align 8 dereferenceable(32) %5, ptr noundef nonnull align 8 dereferenceable(32) %2, i64 32, i1 false)
  %12 = icmp eq ptr %0, %1
  %.019.i = getelementptr inbounds i8, ptr %0, i64 8
  %.not20.i = icmp eq ptr %.019.i, %1
  %or.cond = select i1 %12, i1 true, i1 %.not20.i
  br i1 %or.cond, label %_ZSt16__insertion_sortIPPN5clang17OverloadCandidateEN9__gnu_cxx5__ops15_Iter_comp_iterIN12_GLOBAL__N_135CompareOverloadCandidatesForDisplayEEEEvT_SA_T0_.exit, label %.lr.ph.i

.lr.ph.i:                                         ; preds = %11, %26
  %.022.i = phi ptr [ %.0.i, %26 ], [ %.019.i, %11 ]
  %.pn21.i = phi ptr [ %.022.i, %26 ], [ %0, %11 ]
  %.0.val.i = load ptr, ptr %.022.i, align 8
  %.val.i = load ptr, ptr %0, align 8
  %13 = call fastcc noundef zeroext i1 @_ZN12_GLOBAL__N_135CompareOverloadCandidatesForDisplayclEPKN5clang17OverloadCandidateES4_(ptr noundef nonnull readonly align 8 dereferenceable(28) %5, ptr noundef %.0.val.i, ptr noundef %.val.i)
  br i1 %13, label %14, label %21

14:                                               ; preds = %.lr.ph.i
  %15 = load ptr, ptr %.022.i, align 8
  %16 = getelementptr inbounds i8, ptr %.pn21.i, i64 16
  %17 = ptrtoint ptr %.022.i to i64
  %18 = sub i64 %17, %7
  %19 = ashr exact i64 %18, 3
  %.pre.i.i.i.i.i.i = sub nsw i64 0, %19
  %20 = getelementptr inbounds ptr, ptr %16, i64 %.pre.i.i.i.i.i.i
  tail call void @llvm.memmove.p0.p0.i64(ptr noundef nonnull align 8 dereferenceable(1) %20, ptr noundef nonnull align 8 dereferenceable(1) %0, i64 %18, i1 false)
  store ptr %15, ptr %0, align 8
  br label %26

21:                                               ; preds = %.lr.ph.i
  call void @llvm.lifetime.start.p0(i64 32, ptr nonnull %4)
  call void @llvm.memcpy.p0.p0.i64(ptr noundef nonnull align 8 dereferenceable(32) %4, ptr noundef nonnull readonly align 8 dereferenceable(32) %5, i64 32, i1 false)
  %22 = load ptr, ptr %.022.i, align 8
  %.0.val11.i.i = load ptr, ptr %.pn21.i, align 8
  %23 = call fastcc noundef zeroext i1 @_ZN12_GLOBAL__N_135CompareOverloadCandidatesForDisplayclEPKN5clang17OverloadCandidateES4_(ptr noundef nonnull readonly align 8 dereferenceable(28) %4, ptr noundef %22, ptr noundef %.0.val11.i.i)
  br i1 %23, label %.lr.ph.i.i, label %_ZSt25__unguarded_linear_insertIPPN5clang17OverloadCandidateEN9__gnu_cxx5__ops14_Val_comp_iterIN12_GLOBAL__N_135CompareOverloadCandidatesForDisplayEEEEvT_T0_.exit.i

.lr.ph.i.i:                                       ; preds = %21, %.lr.ph.i.i
  %.013.i.i = phi ptr [ %.0.i.i, %.lr.ph.i.i ], [ %.pn21.i, %21 ]
  %.0912.i.i = phi ptr [ %.013.i.i, %.lr.ph.i.i ], [ %.022.i, %21 ]
  %24 = load ptr, ptr %.013.i.i, align 8
  store ptr %24, ptr %.0912.i.i, align 8
  %.0.i.i = getelementptr inbounds i8, ptr %.013.i.i, i64 -8
  %.0.val.i.i = load ptr, ptr %.0.i.i, align 8
  %25 = call fastcc noundef zeroext i1 @_ZN12_GLOBAL__N_135CompareOverloadCandidatesForDisplayclEPKN5clang17OverloadCandidateES4_(ptr noundef nonnull readonly align 8 dereferenceable(28) %4, ptr noundef %22, ptr noundef %.0.val.i.i)
  br i1 %25, label %.lr.ph.i.i, label %_ZSt25__unguarded_linear_insertIPPN5clang17OverloadCandidateEN9__gnu_cxx5__ops14_Val_comp_iterIN12_GLOBAL__N_135CompareOverloadCandidatesForDisplayEEEEvT_T0_.exit.i, !llvm.loop !459

_ZSt25__unguarded_linear_insertIPPN5clang17OverloadCandidateEN9__gnu_cxx5__ops14_Val_comp_iterIN12_GLOBAL__N_135CompareOverloadCandidatesForDisplayEEEEvT_T0_.exit.i: ; preds = %.lr.ph.i.i, %21
  %.09.lcssa.i.i = phi ptr [ %.022.i, %21 ], [ %.013.i.i, %.lr.ph.i.i ]
  store ptr %22, ptr %.09.lcssa.i.i, align 8
  call void @llvm.lifetime.end.p0(i64 32, ptr nonnull %4)
  br label %26

26:                                               ; preds = %_ZSt25__unguarded_linear_insertIPPN5clang17OverloadCandidateEN9__gnu_cxx5__ops14_Val_comp_iterIN12_GLOBAL__N_135CompareOverloadCandidatesForDisplayEEEEvT_T0_.exit.i, %14
  %.0.i = getelementptr inbounds i8, ptr %.022.i, i64 8
  %.not.i = icmp eq ptr %.0.i, %1
  br i1 %.not.i, label %_ZSt16__insertion_sortIPPN5clang17OverloadCandidateEN9__gnu_cxx5__ops15_Iter_comp_iterIN12_GLOBAL__N_135CompareOverloadCandidatesForDisplayEEEEvT_SA_T0_.exit, label %.lr.ph.i, !llvm.loop !460

_ZSt16__insertion_sortIPPN5clang17OverloadCandidateEN9__gnu_cxx5__ops15_Iter_comp_iterIN12_GLOBAL__N_135CompareOverloadCandidatesForDisplayEEEEvT_SA_T0_.exit: ; preds = %26, %11
  call void @llvm.lifetime.end.p0(i64 32, ptr nonnull %5)
  br label %common.ret18

common.ret18:                                     ; preds = %27, %_ZSt16__insertion_sortIPPN5clang17OverloadCandidateEN9__gnu_cxx5__ops15_Iter_comp_iterIN12_GLOBAL__N_135CompareOverloadCandidatesForDisplayEEEEvT_SA_T0_.exit
  ret void

27:                                               ; preds = %3
  %28 = lshr i64 %9, 1
  %29 = getelementptr inbounds ptr, ptr %0, i64 %28
  tail call fastcc void @_ZSt21__inplace_stable_sortIPPN5clang17OverloadCandidateEN9__gnu_cxx5__ops15_Iter_comp_iterIN12_GLOBAL__N_135CompareOverloadCandidatesForDisplayEEEEvT_SA_T0_(ptr noundef %0, ptr noundef %29, ptr noundef nonnull byval(%"struct.__gnu_cxx::__ops::_Iter_comp_iter.2161") align 8 %2)
  tail call fastcc void @_ZSt21__inplace_stable_sortIPPN5clang17OverloadCandidateEN9__gnu_cxx5__ops15_Iter_comp_iterIN12_GLOBAL__N_135CompareOverloadCandidatesForDisplayEEEEvT_SA_T0_(ptr noundef %29, ptr noundef %1, ptr noundef nonnull byval(%"struct.__gnu_cxx::__ops::_Iter_comp_iter.2161") align 8 %2)
  %30 = ptrtoint ptr %29 to i64
  %31 = sub i64 %6, %30
  %32 = ashr exact i64 %31, 3
  tail call fastcc void @_ZSt22__merge_without_bufferIPPN5clang17OverloadCandidateElN9__gnu_cxx5__ops15_Iter_comp_iterIN12_GLOBAL__N_135CompareOverloadCandidatesForDisplayEEEEvT_SA_SA_T0_SB_T1_(ptr noundef %0, ptr noundef %29, ptr noundef %1, i64 noundef %28, i64 noundef %32, ptr noundef nonnull byval(%"struct.__gnu_cxx::__ops::_Iter_comp_iter.2161") align 8 %2)
  br label %common.ret18
}